; 224XL v8_21 ARU engine disassembly (NVS window 0x8000-0xFFFF, correct bases)
; Generated by tools/disrange.py. Key routines for the microword-build emulation.
;
; ===== NVS3 program loader + bytecode interpreter (0xA791-0xAD80) =====
A791  3A 08 3C      LD A,(0x3c08)
A794  E6 04         AND 4
A796  C0            RET nz
A797  11 A2 3C      LD DE,0x3ca2
A79A  21 72 3C      LD HL,0x3c72
A79D  CD B0 A9      CALL 0xa9b0
A7A0  CD A9 A7      CALL 0xa7a9
A7A3  DA 63 A8      JP c,0xa863
A7A6  C3 6A A8      JP 0xa86a
A7A9  3E 01         LD A,1
A7AB  32 F5 3D      LD (0x3df5),A
A7AE  2A F8 3D      LD HL,(0x3df8)
A7B1  7C            LD A,H
A7B2  E6 08         AND 8
A7B4  C2 BB A7      JP nz,0xa7bb
A7B7  7C            LD A,H
A7B8  E6 FB         AND 0xfb
A7BA  67            LD H,A
A7BB  29            ADD HL,HL
A7BC  22 F6 3D      LD (0x3df6),HL
A7BF  21 A3 3C      LD HL,0x3ca3
A7C2  11 1E A9      LD DE,0xa91e
A7C5  01 FA 3C      LD BC,0x3cfa
A7C8  D8            RET c
A7C9  23            INC HL
A7CA  3A 53 3C      LD A,(0x3c53)
A7CD  CD 13 A9      CALL 0xa913
A7D0  2B            DEC HL
A7D1  CA DC A7      JP z,0xa7dc
A7D4  3E FF         LD A,0xff
A7D6  32 73 3C      LD (0x3c73),A
A7D9  32 74 3C      LD (0x3c74),A
A7DC  3A 52 3C      LD A,(0x3c52)
A7DF  32 FC 3D      LD (0x3dfc),A
A7E2  E5            PUSH HL
A7E3  2A A3 3C      LD HL,(0x3ca3)
A7E6  22 FA 3D      LD (0x3dfa),HL
A7E9  2A 52 3C      LD HL,(0x3c52)
A7EC  22 A3 3C      LD (0x3ca3),HL
A7EF  E1            POP HL
A7F0  3E 06         LD A,6
A7F2  32 F3 3D      LD (0x3df3),A
A7F5  CD 4B A8      CALL 0xa84b
A7F8  E5            PUSH HL
A7F9  2A FA 3D      LD HL,(0x3dfa)
A7FC  22 A3 3C      LD (0x3ca3),HL
A7FF  21 74 3C      LD HL,0x3c74
A802  CD F8 A8      CALL 0xa8f8
A805  32 3E 3E      LD (0x3e3e),A
A808  D5            PUSH DE
A809  C5            PUSH BC
A80A  2A 03 3E      LD HL,(0x3e03)
A80D  11 2C 00      LD DE,0x2c
A810  19            ADD HL,DE
A811  7E            LD A,(HL)
A812  FE FE         CP 0xfe
A814  CA 1D A8      JP z,0xa81d
A817  3A 5B 3C      LD A,(0x3c5b)
A81A  C3 40 A8      JP 0xa840
A81D  3A E9 3C      LD A,(0x3ce9)
A820  6F            LD L,A
A821  26 00         LD H,0
A823  3A 61 3C      LD A,(0x3c61)
A826  FE 20         CP 0x20
A828  C2 2D A8      JP nz,0xa82d
A82B  29            ADD HL,HL
A82C  29            ADD HL,HL
A82D  EB            EX DE,HL
A82E  3A 5B 3C      LD A,(0x3c5b)
A831  CD 0B 12      CALL 0x120b
A834  B7            OR A
A835  CA 3A A8      JP z,0xa83a
A838  26 FF         LD H,0xff
A83A  7C            LD A,H
A83B  B7            OR A
A83C  C2 40 A8      JP nz,0xa840
A83F  3C            INC A
A840  32 5C 3C      LD (0x3c5c),A
A843  32 14 3E      LD (0x3e14),A
A846  C1            POP BC
A847  D1            POP DE
A848  E1            POP HL
A849  B7            OR A
A84A  C9            RET
A84B  CD 12 A9      CALL 0xa912
A84E  E5            PUSH HL
A84F  D5            PUSH DE
A850  CD B5 11      CALL 0x11b5
A853  D1            POP DE
A854  13            INC DE
A855  13            INC DE
A856  E1            POP HL
A857  23            INC HL
A858  3A F3 3D      LD A,(0x3df3)
A85B  3D            DEC A
A85C  32 F3 3D      LD (0x3df3),A
A85F  C2 4B A8      JP nz,0xa84b
A862  C9            RET
A863  E5            PUSH HL
A864  21 0C 00      LD HL,12
A867  19            ADD HL,DE
A868  EB            EX DE,HL
A869  E1            POP HL
A86A  3A F5 3D      LD A,(0x3df5)
A86D  3C            INC A
A86E  32 F5 3D      LD (0x3df5),A
A871  FE 0D         CP 13
A873  CA 92 A8      JP z,0xa892
A876  E5            PUSH HL
A877  2A F6 3D      LD HL,(0x3df6)
A87A  29            ADD HL,HL
A87B  22 F6 3D      LD (0x3df6),HL
A87E  E1            POP HL
A87F  DA 63 A8      JP c,0xa863
A882  FE 02         CP 2
A884  CA CC A8      JP z,0xa8cc
A887  3E 06         LD A,6
A889  32 F3 3D      LD (0x3df3),A
A88C  CD 4B A8      CALL 0xa84b
A88F  C3 6A A8      JP 0xa86a
A892  21 CD 3C      LD HL,0x3ccd
A895  CD 12 A9      CALL 0xa912
A898  23            INC HL
A899  CD 12 A9      CALL 0xa912
A89C  23            INC HL
A89D  CD 12 A9      CALL 0xa912
A8A0  23            INC HL
A8A1  CD 12 A9      CALL 0xa912
A8A4  23            INC HL
A8A5  CD 12 A9      CALL 0xa912
A8A8  2A 03 3E      LD HL,(0x3e03)
A8AB  11 2C 00      LD DE,0x2c
A8AE  19            ADD HL,DE
A8AF  7E            LD A,(HL)
A8B0  FE FE         CP 0xfe
A8B2  C2 BD A8      JP nz,0xa8bd
A8B5  21 D1 3C      LD HL,0x3cd1
A8B8  7E            LD A,(HL)
A8B9  32 D3 3C      LD (0x3cd3),A
A8BC  C9            RET
A8BD  21 CF 3C      LD HL,0x3ccf
A8C0  7E            LD A,(HL)
A8C1  32 D3 3C      LD (0x3cd3),A
A8C4  21 D1 3C      LD HL,0x3cd1
A8C7  7E            LD A,(HL)
A8C8  32 D5 3C      LD (0x3cd5),A
A8CB  C9            RET
A8CC  23            INC HL
A8CD  CD 12 A9      CALL 0xa912
A8D0  2B            DEC HL
A8D1  CA DC A8      JP z,0xa8dc
A8D4  3E FF         LD A,0xff
A8D6  32 79 3C      LD (0x3c79),A
A8D9  32 7A 3C      LD (0x3c7a),A
A8DC  3A A9 3C      LD A,(0x3ca9)
A8DF  32 FC 3D      LD (0x3dfc),A
A8E2  3E 06         LD A,6
A8E4  32 F3 3D      LD (0x3df3),A
A8E7  CD 4B A8      CALL 0xa84b
A8EA  E5            PUSH HL
A8EB  21 7A 3C      LD HL,0x3c7a
A8EE  CD F8 A8      CALL 0xa8f8
A8F1  32 3F 3E      LD (0x3e3f),A
A8F4  E1            POP HL
A8F5  C3 6A A8      JP 0xa86a
A8F8  3E 01         LD A,1
A8FA  32 12 3E      LD (0x3e12),A
A8FD  D5            PUSH DE
A8FE  7E            LD A,(HL)
A8FF  CD 52 B5      CALL 0xb552
A902  57            LD D,A
A903  3A 0B 3E      LD A,(0x3e0b)
A906  B7            OR A
A907  CA 0F A9      JP z,0xa90f
A90A  3D            DEC A
A90B  BA            CP D
A90C  DA 10 A9      JP c,0xa910
A90F  7A            LD A,D
A910  D1            POP DE
A911  C9            RET
A912  7E            LD A,(HL)
A913  E5            PUSH HL
A914  D5            PUSH DE
A915  11 D0 FF      LD DE,0xffd0
A918  19            ADD HL,DE
A919  BE            CP (HL)
A91A  77            LD (HL),A
A91B  D1            POP DE
A91C  E1            POP HL
A91D  C9            RET
A91E  9D            SBC A,L
A91F  AE            XOR (HL)
A920  4E            LD C,(HL)
A921  AF            XOR A
A922  FF            RST 0x38
A923  B0            OR B
A924  FF            RST 0x38
A925  B0            OR B
A926  93            SUB E
A927  B1            OR C
A928  DD B2         OR D
A92A  9D            SBC A,L
A92B  AE            XOR (HL)
A92C  68            LD L,B
A92D  AF            XOR A
A92E  FF            RST 0x38
A92F  B0            OR B
A930  FF            RST 0x38
A931  B0            OR B
A932  93            SUB E
A933  B1            OR C
A934  A3            AND E
A935  B4            OR H
A936  3B            DEC SP
A937  B5            OR L
A938  3B            DEC SP
A939  B5            OR L
A93A  BA            CP D
A93B  B3            OR E
A93C  FF            RST 0x38
A93D  B0            OR B
A93E  A3            AND E
A93F  B2            OR D
A940  77            LD (HL),A
A941  B2            OR D
A942  E3            EX (SP),HL
A943  B3            OR E
A944  E3            EX (SP),HL
A945  B3            OR E
A946  E3            EX (SP),HL
A947  B3            OR E
A948  E3            EX (SP),HL
A949  B3            OR E
A94A  E3            EX (SP),HL
A94B  B3            OR E
A94C  E3            EX (SP),HL
A94D  B3            OR E
A94E  FA B3 FA      JP m,0xfab3
A951  B3            OR E
A952  FA B3 FA      JP m,0xfab3
A955  B3            OR E
A956  FA B3 FA      JP m,0xfab3
A959  B3            OR E
A95A  AE            XOR (HL)
A95B  A9            XOR C
A95C  AE            XOR (HL)
A95D  A9            XOR C
A95E  AE            XOR (HL)
A95F  A9            XOR C
A960  AE            XOR (HL)
A961  A9            XOR C
A962  AE            XOR (HL)
A963  A9            XOR C
A964  AE            XOR (HL)
A965  A9            XOR C
A966  C3 B4 C3      JP 0xc3b4
A969  B4            OR H
A96A  C3 B4 C3      JP 0xc3b4
A96D  B4            OR H
A96E  C3 B4 C3      JP 0xc3b4
A971  B4            OR H
A972  FF            RST 0x38
A973  B0            OR B
A974  FF            RST 0x38
A975  B0            OR B
A976  FF            RST 0x38
A977  B0            OR B
A978  FF            RST 0x38
A979  B0            OR B
A97A  FF            RST 0x38
A97B  B0            OR B
A97C  FF            RST 0x38
A97D  B0            OR B
A97E  FF            RST 0x38
A97F  B0            OR B
A980  FF            RST 0x38
A981  B0            OR B
A982  FF            RST 0x38
A983  B0            OR B
A984  FF            RST 0x38
A985  B0            OR B
A986  FF            RST 0x38
A987  B0            OR B
A988  FF            RST 0x38
A989  B0            OR B
A98A  A3            AND E
A98B  B4            OR H
A98C  A3            AND E
A98D  B4            OR H
A98E  A3            AND E
A98F  B4            OR H
A990  A3            AND E
A991  B4            OR H
A992  A3            AND E
A993  B4            OR H
A994  A3            AND E
A995  B4            OR H
A996  FF            RST 0x38
A997  B0            OR B
A998  FF            RST 0x38
A999  B0            OR B
A99A  FF            RST 0x38
A99B  B0            OR B
A99C  FF            RST 0x38
A99D  B0            OR B
A99E  FF            RST 0x38
A99F  B0            OR B
A9A0  FF            RST 0x38
A9A1  B0            OR B
A9A2  FF            RST 0x38
A9A3  B0            OR B
A9A4  FF            RST 0x38
A9A5  B0            OR B
A9A6  FF            RST 0x38
A9A7  B0            OR B
A9A8  FF            RST 0x38
A9A9  B0            OR B
A9AA  A3            AND E
A9AB  B2            OR D
A9AC  77            LD (HL),A
A9AD  B2            OR D
A9AE  C9            RET
A9AF  EF            RST 0x28
A9B0  1A            LD A,(DE)
A9B1  BE            CP (HL)
A9B2  C2 DB A9      JP nz,0xa9db
A9B5  1A            LD A,(DE)
A9B6  CD 3E 13      CALL 0x133e
A9B9  C8            RET z
A9BA  11 30 00      LD DE,0x30
A9BD  19            ADD HL,DE
A9BE  7E            LD A,(HL)
A9BF  FE FE         CP 0xfe
A9C1  C0            RET nz
A9C2  3A CE 3C      LD A,(0x3cce)
A9C5  4F            LD C,A
A9C6  3A 9E 3C      LD A,(0x3c9e)
A9C9  B9            CP C
A9CA  C2 DB A9      JP nz,0xa9db
A9CD  23            INC HL
A9CE  7E            LD A,(HL)
A9CF  FE FE         CP 0xfe
A9D1  C0            RET nz
A9D2  3A CF 3C      LD A,(0x3ccf)
A9D5  4F            LD C,A
A9D6  3A 9F 3C      LD A,(0x3c9f)
A9D9  B9            CP C
A9DA  C8            RET z
A9DB  CD 07 AC      CALL 0xac07
A9DE  CD EE AC      CALL 0xacee
A9E1  3A 72 3C      LD A,(0x3c72)
A9E4  32 D7 3C      LD (0x3cd7),A
A9E7  3A A2 3C      LD A,(0x3ca2)
A9EA  32 72 3C      LD (0x3c72),A
A9ED  21 F4 3C      LD HL,0x3cf4
A9F0  06 FF         LD B,0xff
A9F2  3E 00         LD A,0
A9F4  77            LD (HL),A
A9F5  23            INC HL
A9F6  05            DEC B
A9F7  C2 F4 A9      JP nz,0xa9f4
A9FA  3A A2 3C      LD A,(0x3ca2)
A9FD  CD 3E 13      CALL 0x133e
AA00  C8            RET z
AA01  E5            PUSH HL
AA02  22 01 3E      LD (0x3e01),HL
AA05  11 04 00      LD DE,4
AA08  19            ADD HL,DE
AA09  22 03 3E      LD (0x3e03),HL
AA0C  E1            POP HL
AA0D  23            INC HL
AA0E  5E            LD E,(HL)
AA0F  23            INC HL
AA10  56            LD D,(HL)
AA11  EB            EX DE,HL
AA12  22 F8 3D      LD (0x3df8),HL
AA15  21 32 00      LD HL,0x32
AA18  19            ADD HL,DE
AA19  7E            LD A,(HL)
AA1A  32 5B 3C      LD (0x3c5b),A
AA1D  23            INC HL
AA1E  7E            LD A,(HL)
AA1F  32 D5 3C      LD (0x3cd5),A
AA22  23            INC HL
AA23  11 D8 3C      LD DE,0x3cd8
AA26  06 0D         LD B,13
AA28  CD 14 06      CALL 0x0614
AA2B  CD 5B B5      CALL 0xb55b
AA2E  D3 00         OUT (0x0000),A
AA30  E3            EX (SP),HL
AA31  E3            EX (SP),HL
AA32  E3            EX (SP),HL
AA33  E3            EX (SP),HL
AA34  E3            EX (SP),HL
AA35  E3            EX (SP),HL
AA36  D3 02         OUT (0x0002),A
AA38  21 4D 3F      LD HL,0x3f4d
AA3B  11 FD 41      LD DE,0x41fd
AA3E  06 80         LD B,0x80
AA40  7E            LD A,(HL)
AA41  12            LD (DE),A
AA42  2B            DEC HL
AA43  1B            DEC DE
AA44  7E            LD A,(HL)
AA45  12            LD (DE),A
AA46  2B            DEC HL
AA47  1B            DEC DE
AA48  1B            DEC DE
AA49  1B            DEC DE
AA4A  05            DEC B
AA4B  C2 40 AA      JP nz,0xaa40
AA4E  2A 38 41      LD HL,(0x4138)
AA51  22 FD 3D      LD (0x3dfd),HL
AA54  2A 74 40      LD HL,(0x4074)
AA57  22 FF 3D      LD (0x3dff),HL
AA5A  21 7F E5      LD HL,0xe57f
AA5D  22 38 41      LD (0x4138),HL
AA60  21 77 EA      LD HL,0xea77
AA63  22 74 40      LD (0x4074),HL
AA66  D3 01         OUT (0x0001),A
AA68  D3 03         OUT (0x0003),A
AA6A  2A 01 3E      LD HL,(0x3e01)
AA6D  11 AA C0      LD DE,0xc0aa
AA70  19            ADD HL,DE
AA71  22 05 3E      LD (0x3e05),HL
AA74  21 73 3C      LD HL,0x3c73
AA77  06 2F         LD B,0x2f
AA79  3E FF         LD A,0xff
AA7B  77            LD (HL),A
AA7C  23            INC HL
AA7D  05            DEC B
AA7E  C2 7B AA      JP nz,0xaa7b
AA81  2A 03 3E      LD HL,(0x3e03)
AA84  11 2C 00      LD DE,0x2c
AA87  19            ADD HL,DE
AA88  7E            LD A,(HL)
AA89  FE FE         CP 0xfe
AA8B  2A 01 3E      LD HL,(0x3e01)
AA8E  11 35 00      LD DE,0x35
AA91  C2 97 AA      JP nz,0xaa97
AA94  11 44 00      LD DE,0x44
AA97  19            ADD HL,DE
AA98  EB            EX DE,HL
AA99  21 4E 3E      LD HL,0x3e4e
AA9C  01 F4 3C      LD BC,0x3cf4
AA9F  1A            LD A,(DE)
AAA0  3C            INC A
AAA1  CA 39 AB      JP z,0xab39
AAA4  7D            LD A,L
AAA5  02            LD (BC),A
AAA6  03            INC BC
AAA7  7C            LD A,H
AAA8  02            LD (BC),A
AAA9  03            INC BC
AAAA  1A            LD A,(DE)
AAAB  02            LD (BC),A
AAAC  03            INC BC
AAAD  E6 0F         AND 15
AAAF  CA C9 AA      JP z,0xaac9
AAB2  1A            LD A,(DE)
AAB3  E6 30         AND 0x30
AAB5  FE 00         CP 0
AAB7  CC 26 AB      CALL z,0xab26
AABA  FE 10         CP 0x10
AABC  CC E8 AA      CALL z,0xaae8
AABF  FE 20         CP 0x20
AAC1  CC CD AA      CALL z,0xaacd
AAC4  FE 30         CP 0x30
AAC6  C2 9F AA      JP nz,0xaa9f
AAC9  13            INC DE
AACA  C3 9F AA      JP 0xaa9f
AACD  F5            PUSH AF
AACE  C5            PUSH BC
AACF  1A            LD A,(DE)
AAD0  13            INC DE
AAD1  E6 0F         AND 15
AAD3  47            LD B,A
AAD4  CD 0C AB      CALL 0xab0c
AAD7  77            LD (HL),A
AAD8  23            INC HL
AAD9  1A            LD A,(DE)
AADA  13            INC DE
AADB  77            LD (HL),A
AADC  23            INC HL
AADD  1A            LD A,(DE)
AADE  13            INC DE
AADF  77            LD (HL),A
AAE0  23            INC HL
AAE1  05            DEC B
AAE2  C2 D4 AA      JP nz,0xaad4
AAE5  C1            POP BC
AAE6  F1            POP AF
AAE7  C9            RET
AAE8  F5            PUSH AF
AAE9  C5            PUSH BC
AAEA  1A            LD A,(DE)
AAEB  13            INC DE
AAEC  E6 0F         AND 15
AAEE  47            LD B,A
AAEF  CD 0C AB      CALL 0xab0c
AAF2  1B            DEC DE
AAF3  1A            LD A,(DE)
AAF4  13            INC DE
AAF5  E6 80         AND 0x80
AAF7  CA 01 AB      JP z,0xab01
AAFA  1A            LD A,(DE)
AAFB  77            LD (HL),A
AAFC  23            INC HL
AAFD  13            INC DE
AAFE  CD 0C AB      CALL 0xab0c
AB01  1A            LD A,(DE)
AB02  77            LD (HL),A
AB03  23            INC HL
AB04  13            INC DE
AB05  05            DEC B
AB06  C2 EF AA      JP nz,0xaaef
AB09  C1            POP BC
AB0A  F1            POP AF
AB0B  C9            RET
AB0C  1A            LD A,(DE)
AB0D  E6 7F         AND 0x7f
AB0F  D5            PUSH DE
AB10  E5            PUSH HL
AB11  6F            LD L,A
AB12  26 00         LD H,0
AB14  29            ADD HL,HL
AB15  29            ADD HL,HL
AB16  11 03 40      LD DE,0x4003
AB19  19            ADD HL,DE
AB1A  EB            EX DE,HL
AB1B  E1            POP HL
AB1C  73            LD (HL),E
AB1D  23            INC HL
AB1E  72            LD (HL),D
AB1F  23            INC HL
AB20  CD 10 B5      CALL 0xb510
AB23  D1            POP DE
AB24  13            INC DE
AB25  C9            RET
AB26  F5            PUSH AF
AB27  C5            PUSH BC
AB28  1A            LD A,(DE)
AB29  13            INC DE
AB2A  E6 0F         AND 15
AB2C  47            LD B,A
AB2D  CD 0C AB      CALL 0xab0c
AB30  77            LD (HL),A
AB31  23            INC HL
AB32  05            DEC B
AB33  C2 2D AB      JP nz,0xab2d
AB36  C1            POP BC
AB37  F1            POP AF
AB38  C9            RET
AB39  D3 00         OUT (0x0000),A
AB3B  E3            EX (SP),HL
AB3C  E3            EX (SP),HL
AB3D  E3            EX (SP),HL
AB3E  E3            EX (SP),HL
AB3F  E3            EX (SP),HL
AB40  E3            EX (SP),HL
AB41  D3 02         OUT (0x0002),A
AB43  2A FD 3D      LD HL,(0x3dfd)
AB46  22 38 41      LD (0x4138),HL
AB49  2A FF 3D      LD HL,(0x3dff)
AB4C  22 74 40      LD (0x4074),HL
AB4F  21 3B 00      LD HL,0x3b
AB52  22 47 3E      LD (0x3e47),HL
AB55  2A 01 3E      LD HL,(0x3e01)
AB58  11 A9 02      LD DE,0x2a9
AB5B  19            ADD HL,DE
AB5C  11 FF 41      LD DE,0x41ff
AB5F  06 80         LD B,0x80
AB61  7E            LD A,(HL)
AB62  12            LD (DE),A
AB63  1B            DEC DE
AB64  2B            DEC HL
AB65  7E            LD A,(HL)
AB66  12            LD (DE),A
AB67  2B            DEC HL
AB68  2B            DEC HL
AB69  2B            DEC HL
AB6A  1B            DEC DE
AB6B  1B            DEC DE
AB6C  1B            DEC DE
AB6D  05            DEC B
AB6E  C2 61 AB      JP nz,0xab61
AB71  21 FF 41      LD HL,0x41ff
AB74  22 FD 3D      LD (0x3dfd),HL
AB77  21 37 41      LD HL,0x4137
AB7A  22 FF 3D      LD (0x3dff),HL
AB7D  21 01 42      LD HL,0x4201
AB80  2B            DEC HL
AB81  2B            DEC HL
AB82  2B            DEC HL
AB83  3E 40         LD A,0x40
AB85  BC            CP H
AB86  CA AB AB      JP z,0xabab
AB89  7E            LD A,(HL)
AB8A  2B            DEC HL
AB8B  E6 03         AND 3
AB8D  FE 02         CP 2
AB8F  C2 80 AB      JP nz,0xab80
AB92  7E            LD A,(HL)
AB93  E6 30         AND 0x30
AB95  C2 80 AB      JP nz,0xab80
AB98  23            INC HL
AB99  23            INC HL
AB9A  3E E0         LD A,0xe0
AB9C  BD            CP L
AB9D  D2 A8 AB      JP nc,0xaba8
ABA0  22 FD 3D      LD (0x3dfd),HL
ABA3  2B            DEC HL
ABA4  2B            DEC HL
ABA5  C3 80 AB      JP 0xab80
ABA8  22 FF 3D      LD (0x3dff),HL
ABAB  21 00 00      LD HL,0
ABAE  22 42 3E      LD (0x3e42),HL
ABB1  3E 01         LD A,1
ABB3  32 07 3E      LD (0x3e07),A
ABB6  21 72 3C      LD HL,0x3c72
ABB9  CD A0 A7      CALL 0xa7a0
ABBC  11 08 3E      LD DE,0x3e08
ABBF  2A FD 3D      LD HL,(0x3dfd)
ABC2  4E            LD C,(HL)
ABC3  79            LD A,C
ABC4  F6 FC         OR 0xfc
ABC6  12            LD (DE),A
ABC7  77            LD (HL),A
ABC8  13            INC DE
ABC9  2A FF 3D      LD HL,(0x3dff)
ABCC  46            LD B,(HL)
ABCD  78            LD A,B
ABCE  F6 FC         OR 0xfc
ABD0  77            LD (HL),A
ABD1  12            LD (DE),A
ABD2  1B            DEC DE
ABD3  D3 01         OUT (0x0001),A
ABD5  D3 03         OUT (0x0003),A
ABD7  CD 1F 12      CALL 0x121f
ABDA  CD 1F 12      CALL 0x121f
ABDD  79            LD A,C
ABDE  2A FD 3D      LD HL,(0x3dfd)
ABE1  CD FF AB      CALL 0xabff
ABE4  13            INC DE
ABE5  B9            CP C
ABE6  C2 EB AB      JP nz,0xabeb
ABE9  0E 00         LD C,0
ABEB  78            LD A,B
ABEC  2A FF 3D      LD HL,(0x3dff)
ABEF  CD FF AB      CALL 0xabff
ABF2  1B            DEC DE
ABF3  B8            CP B
ABF4  C2 D7 AB      JP nz,0xabd7
ABF7  06 00         LD B,0
ABF9  79            LD A,C
ABFA  B7            OR A
ABFB  C8            RET z
ABFC  C3 D7 AB      JP 0xabd7
ABFF  B7            OR A
AC00  C8            RET z
AC01  1A            LD A,(DE)
AC02  D6 04         SUB 4
AC04  77            LD (HL),A
AC05  12            LD (DE),A
AC06  C9            RET
AC07  3A F9 3D      LD A,(0x3df9)
AC0A  E6 80         AND 0x80
AC0C  C2 5F AC      JP nz,0xac5f
AC0F  21 A2 3C      LD HL,0x3ca2
AC12  11 01 20      LD DE,0x2001
AC15  06 30         LD B,0x30
AC17  CD 14 06      CALL 0x0614
AC1A  21 72 3C      LD HL,0x3c72
AC1D  11 A2 3C      LD DE,0x3ca2
AC20  06 30         LD B,0x30
AC22  CD 14 06      CALL 0x0614
AC25  3A F9 3D      LD A,(0x3df9)
AC28  E6 40         AND 0x40
AC2A  4F            LD C,A
AC2B  3E FF         LD A,0xff
AC2D  C2 33 AC      JP nz,0xac33
AC30  32 AD 3C      LD (0x3cad),A
AC33  32 A7 3C      LD (0x3ca7),A
AC36  21 77 3C      LD HL,0x3c77
AC39  11 7D 3C      LD DE,0x3c7d
AC3C  06 1F         LD B,0x1f
AC3E  36 00         LD (HL),0
AC40  79            LD A,C
AC41  B7            OR A
AC42  C2 47 AC      JP nz,0xac47
AC45  AF            XOR A
AC46  12            LD (DE),A
AC47  E5            PUSH HL
AC48  D5            PUSH DE
AC49  C5            PUSH BC
AC4A  CD A0 A7      CALL 0xa7a0
AC4D  C1            POP BC
AC4E  D1            POP DE
AC4F  E1            POP HL
AC50  05            DEC B
AC51  C2 3E AC      JP nz,0xac3e
AC54  21 01 20      LD HL,0x2001
AC57  11 A2 3C      LD DE,0x3ca2
AC5A  06 30         LD B,0x30
AC5C  CD 14 06      CALL 0x0614
AC5F  3A F9 3D      LD A,(0x3df9)
AC62  E6 10         AND 0x10
AC64  C0            RET nz
AC65  21 A2 3C      LD HL,0x3ca2
AC68  11 01 20      LD DE,0x2001
AC6B  06 30         LD B,0x30
AC6D  CD 14 06      CALL 0x0614
AC70  21 72 3C      LD HL,0x3c72
AC73  11 A2 3C      LD DE,0x3ca2
AC76  06 30         LD B,0x30
AC78  CD 14 06      CALL 0x0614
AC7B  3A F9 3D      LD A,(0x3df9)
AC7E  E6 20         AND 0x20
AC80  C2 9F AC      JP nz,0xac9f
AC83  3A F9 3D      LD A,(0x3df9)
AC86  06 04         LD B,4
AC88  21 A0 3C      LD HL,0x3ca0
AC8B  11 06 00      LD DE,6
AC8E  05            DEC B
AC8F  CA 9A AC      JP z,0xac9a
AC92  17            RLA
AC93  DA 8E AC      JP c,0xac8e
AC96  19            ADD HL,DE
AC97  C3 8E AC      JP 0xac8e
AC9A  3E FF         LD A,0xff
AC9C  77            LD (HL),A
AC9D  06 00         LD B,0
AC9F  3A F9 3D      LD A,(0x3df9)
ACA2  E6 10         AND 0x10
ACA4  C2 D7 AC      JP nz,0xacd7
ACA7  3A F9 3D      LD A,(0x3df9)
ACAA  06 05         LD B,5
ACAC  21 9D 3C      LD HL,0x3c9d
ACAF  11 06 00      LD DE,6
ACB2  05            DEC B
ACB3  CA BE AC      JP z,0xacbe
ACB6  17            RLA
ACB7  DA B2 AC      JP c,0xacb2
ACBA  19            ADD HL,DE
ACBB  C3 B2 AC      JP 0xacb2
ACBE  E5            PUSH HL
ACBF  0E 06         LD C,6
ACC1  06 00         LD B,0
ACC3  7E            LD A,(HL)
ACC4  D6 08         SUB 8
ACC6  77            LD (HL),A
ACC7  D2 CF AC      JP nc,0xaccf
ACCA  36 00         LD (HL),0
ACCC  C3 D1 AC      JP 0xacd1
ACCF  06 01         LD B,1
ACD1  23            INC HL
ACD2  0D            DEC C
ACD3  C2 C3 AC      JP nz,0xacc3
ACD6  E1            POP HL
ACD7  E5            PUSH HL
ACD8  C5            PUSH BC
ACD9  CD A0 A7      CALL 0xa7a0
ACDC  C1            POP BC
ACDD  E1            POP HL
ACDE  78            LD A,B
ACDF  B7            OR A
ACE0  C2 BE AC      JP nz,0xacbe
ACE3  21 01 20      LD HL,0x2001
ACE6  11 A2 3C      LD DE,0x3ca2
ACE9  06 30         LD B,0x30
ACEB  C3 14 06      JP 0x0614
ACEE  D3 00         OUT (0x0000),A
ACF0  E3            EX (SP),HL
ACF1  E3            EX (SP),HL
ACF2  D3 02         OUT (0x0002),A
ACF4  D3 01         OUT (0x0001),A
ACF6  21 FF FF      LD HL,0xffff
ACF9  22 FE 41      LD (0x41fe),HL
ACFC  22 72 40      LD (0x4072),HL
ACFF  06 FD         LD B,0xfd
AD01  0E FC         LD C,0xfc
AD03  11 03 00      LD DE,3
AD06  21 FB 41      LD HL,0x41fb
AD09  3E 62         LD A,0x62
AD0B  71            LD (HL),C
AD0C  2B            DEC HL
AD0D  70            LD (HL),B
AD0E  2B            DEC HL
AD0F  2B            DEC HL
AD10  2B            DEC HL
AD11  3D            DEC A
AD12  C2 0B AD      JP nz,0xad0b
AD15  01 AB 02      LD BC,0x2ab
AD18  11 00 00      LD DE,0
AD1B  21 F9 41      LD HL,0x41f9
AD1E  3E 30         LD A,0x30
AD20  72            LD (HL),D
AD21  2B            DEC HL
AD22  73            LD (HL),E
AD23  2B            DEC HL
AD24  2B            DEC HL
AD25  2B            DEC HL
AD26  EB            EX DE,HL
AD27  09            ADD HL,BC
AD28  EB            EX DE,HL
AD29  3D            DEC A
AD2A  C2 20 AD      JP nz,0xad20
AD2D  21 35 41      LD HL,0x4135
AD30  3E 30         LD A,0x30
AD32  72            LD (HL),D
AD33  2B            DEC HL
AD34  73            LD (HL),E
AD35  2B            DEC HL
AD36  2B            DEC HL
AD37  2B            DEC HL
AD38  EB            EX DE,HL
AD39  09            ADD HL,BC
AD3A  EB            EX DE,HL
AD3B  3D            DEC A
AD3C  C2 32 AD      JP nz,0xad32
AD3F  21 FE FF      LD HL,0xfffe
AD42  22 3A 41      LD (0x413a),HL
AD45  22 76 40      LD (0x4076),HL
AD48  21 7F E5      LD HL,0xe57f
AD4B  22 38 41      LD (0x4138),HL
AD4E  21 77 EA      LD HL,0xea77
AD51  22 74 40      LD (0x4074),HL
AD54  D3 03         OUT (0x0003),A
AD56  CD 28 12      CALL 0x1228
AD59  C3 28 12      JP 0x1228
AD5C  3A CD 3C      LD A,(0x3ccd)
AD5F  E6 40         AND 0x40
AD61  CA 8B AD      JP z,0xad8b
AD64  21 45 3E      LD HL,0x3e45
AD67  11 D3 3C      LD DE,0x3cd3
AD6A  35            DEC (HL)
AD6B  C2 84 AD      JP nz,0xad84
AD6E  36 08         LD (HL),8
AD70  23            INC HL
AD71  35            DEC (HL)
AD72  C2 84 AD      JP nz,0xad84
AD75  1A            LD A,(DE)
AD76  77            LD (HL),A
AD77  2A 47 3E      LD HL,(0x3e47)
AD7A  23            INC HL
AD7B  7C            LD A,H
AD7C  E6 0F         AND 15
AD7E  F6 80         OR 0x80

; ===== NVS4 packers / fetch / step-builder / ring-buffer (0xB4E0-0xB720) =====
B4E0  5E            LD E,(HL)
B4E1  23            INC HL
B4E2  56            LD D,(HL)
B4E3  23            INC HL
B4E4  CD FF B4      CALL 0xb4ff
B4E7  CD F0 B4      CALL 0xb4f0
B4EA  0D            DEC C
B4EB  C2 E0 B4      JP nz,0xb4e0
B4EE  C1            POP BC
B4EF  C9            RET
B4F0  C5            PUSH BC
B4F1  78            LD A,B
B4F2  2F            CPL
B4F3  87            ADD A,A
B4F4  87            ADD A,A
B4F5  47            LD B,A
B4F6  CD 10 B5      CALL 0xb510
B4F9  E6 03         AND 3
B4FB  B0            OR B
B4FC  12            LD (DE),A
B4FD  C1            POP BC
B4FE  C9            RET
B4FF  C5            PUSH BC
B500  78            LD A,B
B501  2F            CPL
B502  E6 80         AND 0x80
B504  47            LD B,A
B505  1B            DEC DE
B506  CD 10 B5      CALL 0xb510
B509  E6 7F         AND 0x7f
B50B  B0            OR B
B50C  12            LD (DE),A
B50D  13            INC DE
B50E  C1            POP BC
B50F  C9            RET
B510  E5            PUSH HL
B511  2A 05 3E      LD HL,(0x3e05)
B514  19            ADD HL,DE
B515  7E            LD A,(HL)
B516  E1            POP HL
B517  C9            RET
B518  0A            LD A,(BC)
B519  03            INC BC
B51A  6F            LD L,A
B51B  0A            LD A,(BC)
B51C  03            INC BC
B51D  67            LD H,A
B51E  0A            LD A,(BC)
B51F  03            INC BC
B520  E6 0F         AND 15
B522  C9            RET
B523  5E            LD E,(HL)
B524  23            INC HL
B525  56            LD D,(HL)
B526  23            INC HL
B527  CD F0 B4      CALL 0xb4f0
B52A  77            LD (HL),A
B52B  23            INC HL
B52C  0D            DEC C
B52D  C2 23 B5      JP nz,0xb523
B530  C9            RET
B531  B7            OR A
B532  F2 39 B5      JP p,0xb539
B535  2F            CPL
B536  3C            INC A
B537  F6 80         OR 0x80
B539  47            LD B,A
B53A  C9            RET
B53B  03            INC BC
B53C  03            INC BC
B53D  03            INC BC
B53E  C9            RET
B53F  21 06 00      LD HL,6
B542  09            ADD HL,BC
B543  4D            LD C,L
B544  44            LD B,H
B545  C9            RET
B546  21 0C 00      LD HL,12
B549  09            ADD HL,BC
B54A  4D            LD C,L
B54B  44            LD B,H
B54C  C9            RET
B54D  E6 FC         AND 0xfc
B54F  0F            RRCA
B550  0F            RRCA
B551  C9            RET
B552  E6 F8         AND 0xf8
B554  0F            RRCA
B555  0F            RRCA
B556  0F            RRCA
B557  C0            RET nz
B558  3C            INC A
B559  C9            RET
B55A  8C            ADC A,H
B55B  3E 10         LD A,0x10
B55D  32 E9 3C      LD (0x3ce9),A
B560  32 EA 3C      LD (0x3cea),A
B563  2A 03 3E      LD HL,(0x3e03)
B566  11 2C 00      LD DE,0x2c
B569  19            ADD HL,DE
B56A  7E            LD A,(HL)
B56B  FE FE         CP 0xfe
B56D  C2 5A B6      JP nz,0xb65a
B570  3A E1 3C      LD A,(0x3ce1)
B573  4F            LD C,A
B574  3A CE 3C      LD A,(0x3cce)
B577  47            LD B,A
B578  3A E2 3C      LD A,(0x3ce2)
B57B  CD 0C B6      CALL 0xb60c
B57E  32 E9 3C      LD (0x3ce9),A
B581  2A D8 3C      LD HL,(0x3cd8)
B584  44            LD B,H
B585  4D            LD C,L
B586  2A DA 3C      LD HL,(0x3cda)
B589  3A E9 3C      LD A,(0x3ce9)
B58C  CD FA B6      CALL 0xb6fa
B58F  03            INC BC
B590  60            LD H,B
B591  69            LD L,C
B592  22 E5 3C      LD (0x3ce5),HL
B595  21 00 00      LD HL,0
B598  CD 14 B7      CALL 0xb714
B59B  EB            EX DE,HL
B59C  CD 37 11      CALL 0x1137
B59F  2A E5 3C      LD HL,(0x3ce5)
B5A2  19            ADD HL,DE
B5A3  22 E7 3C      LD (0x3ce7),HL
B5A6  21 4D 3F      LD HL,0x3f4d
B5A9  22 F1 3C      LD (0x3cf1),HL
B5AC  3A E0 3C      LD A,(0x3ce0)
B5AF  B7            OR A
B5B0  CA F8 B5      JP z,0xb5f8
B5B3  3A E9 3C      LD A,(0x3ce9)
B5B6  D6 10         SUB 0x10
B5B8  5F            LD E,A
B5B9  16 00         LD D,0
B5BB  3A E0 3C      LD A,(0x3ce0)
B5BE  CD FB 11      CALL 0x11fb
B5C1  29            ADD HL,HL
B5C2  29            ADD HL,HL
B5C3  7C            LD A,H
B5C4  C6 10         ADD A,0x10
B5C6  32 EA 3C      LD (0x3cea),A
B5C9  2A DC 3C      LD HL,(0x3cdc)
B5CC  44            LD B,H
B5CD  4D            LD C,L
B5CE  2A D8 3C      LD HL,(0x3cd8)
B5D1  CD 14 B7      CALL 0xb714
B5D4  E5            PUSH HL
B5D5  2A DE 3C      LD HL,(0x3cde)
B5D8  CD 14 B7      CALL 0xb714
B5DB  29            ADD HL,HL
B5DC  29            ADD HL,HL
B5DD  44            LD B,H
B5DE  4D            LD C,L
B5DF  D1            POP DE
B5E0  CD 37 11      CALL 0x1137
B5E3  CD 37 11      CALL 0x1137
B5E6  EB            EX DE,HL
B5E7  CD CA 11      CALL 0x11ca
B5EA  3A EA 3C      LD A,(0x3cea)
B5ED  BA            CP D
B5EE  DA 27 B6      JP c,0xb627
B5F1  7A            LD A,D
B5F2  32 EA 3C      LD (0x3cea),A
B5F5  C3 27 B6      JP 0xb627
B5F8  3A E3 3C      LD A,(0x3ce3)
B5FB  4F            LD C,A
B5FC  3A CF 3C      LD A,(0x3ccf)
B5FF  47            LD B,A
B600  3A E4 3C      LD A,(0x3ce4)
B603  CD 0C B6      CALL 0xb60c
B606  32 EA 3C      LD (0x3cea),A
B609  C3 27 B6      JP 0xb627
B60C  91            SUB C
B60D  5F            LD E,A
B60E  16 00         LD D,0
B610  78            LD A,B
B611  C5            PUSH BC
B612  CD FB 11      CALL 0x11fb
B615  C1            POP BC
B616  79            LD A,C
B617  47            LD B,A
B618  84            ADD A,H
B619  6F            LD L,A
B61A  26 00         LD H,0
B61C  4C            LD C,H
B61D  CD CA 11      CALL 0x11ca
B620  EB            EX DE,HL
B621  29            ADD HL,HL
B622  29            ADD HL,HL
B623  29            ADD HL,HL
B624  29            ADD HL,HL
B625  7C            LD A,H
B626  C9            RET
B627  2A 01 3E      LD HL,(0x3e01)
B62A  11 A8 02      LD DE,0x2a8
B62D  19            ADD HL,DE
B62E  22 EB 3C      LD (0x3ceb),HL
B631  2A EB 3C      LD HL,(0x3ceb)
B634  7E            LD A,(HL)
B635  2B            DEC HL
B636  46            LD B,(HL)
B637  2B            DEC HL
B638  4E            LD C,(HL)
B639  2B            DEC HL
B63A  2B            DEC HL
B63B  E5            PUSH HL
B63C  E6 03         AND 3
B63E  FE 02         CP 2
B640  C4 7B B6      CALL nz,0xb67b
B643  D5            PUSH DE
B644  2A F1 3C      LD HL,(0x3cf1)
B647  70            LD (HL),B
B648  2B            DEC HL
B649  71            LD (HL),C
B64A  2B            DEC HL
B64B  22 F1 3C      LD (0x3cf1),HL
B64E  11 4E 3E      LD DE,0x3e4e
B651  CD 30 11      CALL 0x1130
B654  D1            POP DE
B655  E1            POP HL
B656  D2 34 B6      JP nc,0xb634
B659  C9            RET
B65A  2A 01 3E      LD HL,(0x3e01)
B65D  11 A7 02      LD DE,0x2a7
B660  19            ADD HL,DE
B661  11 4D 3F      LD DE,0x3f4d
B664  0E 80         LD C,0x80
B666  7E            LD A,(HL)
B667  12            LD (DE),A
B668  2B            DEC HL
B669  1B            DEC DE
B66A  7E            LD A,(HL)
B66B  12            LD (DE),A
B66C  2B            DEC HL
B66D  2B            DEC HL
B66E  2B            DEC HL
B66F  1B            DEC DE
B670  0D            DEC C
B671  C2 66 B6      JP nz,0xb666
B674  21 FF FF      LD HL,0xffff
B677  22 DC 3C      LD (0x3cdc),HL
B67A  C9            RET
B67B  E5            PUSH HL
B67C  D5            PUSH DE
B67D  CD 83 B6      CALL 0xb683
B680  D1            POP DE
B681  E1            POP HL
B682  C9            RET
B683  2A DC 3C      LD HL,(0x3cdc)
B686  CD 14 B7      CALL 0xb714
B689  D0            RET nc
B68A  2A D8 3C      LD HL,(0x3cd8)
B68D  2B            DEC HL
B68E  CD 14 B7      CALL 0xb714
B691  D2 AB B6      JP nc,0xb6ab
B694  2A DA 3C      LD HL,(0x3cda)
B697  CD 14 B7      CALL 0xb714
B69A  DA B9 B6      JP c,0xb6b9
B69D  2A D8 3C      LD HL,(0x3cd8)
B6A0  E5            PUSH HL
B6A1  60            LD H,B
B6A2  69            LD L,C
B6A3  C1            POP BC
B6A4  3A E9 3C      LD A,(0x3ce9)
B6A7  CD FA B6      CALL 0xb6fa
B6AA  C9            RET
B6AB  2A DC 3C      LD HL,(0x3cdc)
B6AE  E5            PUSH HL
B6AF  60            LD H,B
B6B0  69            LD L,C
B6B1  C1            POP BC
B6B2  3A EA 3C      LD A,(0x3cea)
B6B5  CD FA B6      CALL 0xb6fa
B6B8  C9            RET
B6B9  2A DA 3C      LD HL,(0x3cda)
B6BC  EB            EX DE,HL
B6BD  21 00 00      LD HL,0
B6C0  B7            OR A
B6C1  CD 30 11      CALL 0x1130
B6C4  EB            EX DE,HL
B6C5  CD 37 11      CALL 0x1137
B6C8  2A DA 3C      LD HL,(0x3cda)
B6CB  19            ADD HL,DE
B6CC  E5            PUSH HL
B6CD  2B            DEC HL
B6CE  CD 14 B7      CALL 0xb714
B6D1  D1            POP DE
B6D2  D2 E6 B6      JP nc,0xb6e6
B6D5  60            LD H,B
B6D6  69            LD L,C
B6D7  B7            OR A
B6D8  CD 30 11      CALL 0x1130
B6DB  E5            PUSH HL
B6DC  2A E7 3C      LD HL,(0x3ce7)
B6DF  44            LD B,H
B6E0  4D            LD C,L
B6E1  E1            POP HL
B6E2  09            ADD HL,BC
B6E3  44            LD B,H
B6E4  4D            LD C,L
B6E5  C9            RET
B6E6  2A DA 3C      LD HL,(0x3cda)
B6E9  EB            EX DE,HL
B6EA  60            LD H,B
B6EB  69            LD L,C
B6EC  CD 30 11      CALL 0x1130
B6EF  E5            PUSH HL
B6F0  2A E5 3C      LD HL,(0x3ce5)
B6F3  44            LD B,H
B6F4  4D            LD C,L
B6F5  E1            POP HL
B6F6  09            ADD HL,BC
B6F7  44            LD B,H
B6F8  4D            LD C,L
B6F9  C9            RET
B6FA  C5            PUSH BC
B6FB  F5            PUSH AF
B6FC  B7            OR A
B6FD  CD 14 B7      CALL 0xb714
B700  F1            POP AF
B701  EB            EX DE,HL
B702  CD 0B 12      CALL 0x120b
B705  06 04         LD B,4
B707  29            ADD HL,HL
B708  17            RLA
B709  05            DEC B
B70A  C2 07 B7      JP nz,0xb707
B70D  47            LD B,A
B70E  4C            LD C,H
B70F  E1            POP HL
B710  09            ADD HL,BC
B711  44            LD B,H
B712  4D            LD C,L
B713  C9            RET
B714  7D            LD A,L
B715  91            SUB C
B716  6F            LD L,A
B717  7C            LD A,H
B718  98            SBC A,B
B719  67            LD H,A
B71A  C9            RET
B71B  FF            RST 0x38
B71C  FF            RST 0x38
B71D  FF            RST 0x38
B71E  FF            RST 0x38
B71F  FF            RST 0x38
